; Function Attrs: mustprogress nofree nounwind uwtable
define hidden void @_ZN6cineon8InStream5CloseEv(ptr nocapture noundef nonnull align 8 dereferenceable(16) %this) unnamed_addr #8 align 2 {
entry:
  %fp = getelementptr inbounds i8, ptr %this, i64 8
  %0 = load ptr, ptr %fp, align 8
  %tobool.not = icmp eq ptr %0, null
  br i1 %tobool.not, label %if.end, label %if.then

if.then:                                          ; preds = %entry
  %call = tail call i32 @fclose(ptr noundef nonnull %0)
  store ptr null, ptr %fp, align 8
  br label %if.end

if.end:                                           ; preds = %if.then, %entry
  ret void
}